; Function Attrs: nounwind uwtable
define ptr @Cudd_zddIsop(ptr noundef initializes((448, 452)) %0, ptr noundef %1, ptr noundef %2, ptr noundef writeonly captures(none) %3) local_unnamed_addr #0 {
  %5 = getelementptr inbounds nuw i8, ptr %0, i64 488
  %6 = load i32, ptr %5, align 8, !tbaa !3
  store i32 0, ptr %5, align 8, !tbaa !3
  %7 = getelementptr inbounds nuw i8, ptr %0, i64 448
  br label %8

8:                                                ; preds = %8, %4
  store i32 0, ptr %7, align 8, !tbaa !24
  %9 = tail call ptr @cuddZddIsop(ptr noundef nonnull %0, ptr noundef %1, ptr noundef %2, ptr noundef %3)
  %10 = load i32, ptr %7, align 8, !tbaa !24
  %11 = icmp eq i32 %10, 1
  br i1 %11, label %8, label %12, !llvm.loop !25

12:                                               ; preds = %8
  store i32 %6, ptr %5, align 8, !tbaa !3
  ret ptr %9
}